; Function Attrs: mustprogress nofree norecurse nosync nounwind willreturn memory(read, argmem: readwrite, inaccessiblemem: none) uwtable
define dso_local noundef zeroext i1 @_ZNK4llvm14RISCVInstrInfo19canFoldIntoAddrModeERKNS_12MachineInstrENS_8RegisterES3_RNS_11ExtAddrModeE(ptr nocapture noundef nonnull readonly align 8 dereferenceable(88) %0, ptr nocapture noundef nonnull readonly align 8 dereferenceable(70) %1, i32 %2, ptr nocapture noundef nonnull readonly align 8 dereferenceable(70) %3, ptr nocapture noundef nonnull writeonly align 8 dereferenceable(28) %4) unnamed_addr #5 align 2 {
  %6 = getelementptr inbounds nuw i8, ptr %1, i64 68
  %7 = load i16, ptr %6, align 4
  switch i16 %7, label %50 [
    i16 12785, label %8
    i16 12786, label %8
    i16 12792, label %8
    i16 12793, label %8
    i16 12805, label %8
    i16 12806, label %8
    i16 12789, label %8
    i16 12624, label %8
    i16 12638, label %8
    i16 12613, label %8
    i16 12889, label %8
    i16 12912, label %8
    i16 12971, label %8
    i16 12901, label %8
    i16 12731, label %8
    i16 12746, label %8
    i16 12709, label %8
  ]

8:                                                ; preds = %5, %5, %5, %5, %5, %5, %5, %5, %5, %5, %5, %5, %5, %5, %5, %5, %5
  %9 = getelementptr inbounds nuw i8, ptr %1, i64 32
  %10 = load ptr, ptr %9, align 8
  %11 = getelementptr inbounds nuw i8, ptr %10, i64 4
  %12 = load i32, ptr %11, align 4
  %13 = icmp ne i32 %12, %2
  %14 = getelementptr inbounds nuw i8, ptr %3, i64 68
  %15 = load i16, ptr %14, align 4
  %.not = icmp eq i16 %15, 11885
  %or.cond = select i1 %13, i1 %.not, i1 false
  br i1 %or.cond, label %16, label %50

16:                                               ; preds = %8
  %17 = getelementptr inbounds nuw i8, ptr %3, i64 32
  %18 = load ptr, ptr %17, align 8
  %19 = getelementptr inbounds i8, ptr %18, i64 32
  %20 = load i32, ptr %19, align 8
  %21 = and i32 %20, 255
  %22 = icmp eq i32 %21, 0
  br i1 %22, label %23, label %50

23:                                               ; preds = %16
  %24 = getelementptr inbounds i8, ptr %18, i64 64
  %25 = load i32, ptr %24, align 8
  %26 = and i32 %25, 255
  %27 = icmp eq i32 %26, 1
  br i1 %27, label %28, label %50

28:                                               ; preds = %23
  %29 = getelementptr inbounds i8, ptr %10, i64 80
  %30 = load i64, ptr %29, align 8
  %31 = getelementptr inbounds i8, ptr %18, i64 80
  %32 = load i64, ptr %31, align 8
  %33 = add nsw i64 %32, %30
  %34 = getelementptr inbounds nuw i8, ptr %0, i64 80
  %35 = load ptr, ptr %34, align 8
  %36 = getelementptr inbounds nuw i8, ptr %35, i64 475
  %37 = load i8, ptr %36, align 1
  %38 = trunc i8 %37 to i1
  %39 = shl i64 %33, 32
  %40 = ashr exact i64 %39, 32
  %.019 = select i1 %38, i64 %33, i64 %40
  %41 = add i64 %.019, 2048
  %42 = icmp ult i64 %41, 4096
  br i1 %42, label %43, label %50

43:                                               ; preds = %28
  %44 = getelementptr inbounds i8, ptr %18, i64 36
  %45 = load i32, ptr %44, align 4
  store i32 %45, ptr %4, align 8
  %46 = getelementptr inbounds nuw i8, ptr %4, i64 4
  store i32 0, ptr %46, align 4
  %47 = getelementptr inbounds nuw i8, ptr %4, i64 8
  store i64 0, ptr %47, align 8
  %48 = getelementptr inbounds nuw i8, ptr %4, i64 16
  store i64 %.019, ptr %48, align 8
  %49 = getelementptr inbounds nuw i8, ptr %4, i64 24
  store i32 0, ptr %49, align 8
  br label %50

50:                                               ; preds = %28, %16, %23, %8, %5, %43
  %.0 = phi i1 [ true, %43 ], [ false, %5 ], [ false, %8 ], [ false, %23 ], [ false, %16 ], [ false, %28 ]
  ret i1 %.0
}